target datalayout = "e-m:e-p270:32:32-p271:32:32-p272:64:64-i64:64-i128:128-f80:128-n8:16:32:64-S128"
target triple = "x86_64-pc-linux-gnu"

%struct.dt_dbus_t = type { i32, ptr, i32, i32, ptr }

@.str = private unnamed_addr constant [22 x i8] c"org.darktable.service\00", align 1
@.str.1 = private unnamed_addr constant [14 x i8] c"exit-on-close\00", align 1

; Function Attrs: nounwind uwtable
define ptr @dt_dbus_init() #0 {
  %1 = alloca ptr, align 8
  %2 = alloca ptr, align 8
  %3 = alloca i32, align 4
  call void @llvm.lifetime.start.p0(i64 8, ptr %2) #5
  %4 = call noalias ptr @g_malloc0(i64 noundef 32) #6
  store ptr %4, ptr %2, align 8, !tbaa !6
  %5 = load ptr, ptr %2, align 8, !tbaa !6
  %6 = icmp ne ptr %5, null
  br i1 %6, label %8, label %7

7:                                                ; preds = %0
  store ptr null, ptr %1, align 8
  store i32 1, ptr %3, align 4
  br label %37

8:                                                ; preds = %0
  %9 = call ptr @g_dbus_node_info_new_for_xml(ptr noundef @introspection_xml, ptr noundef null)
  %10 = load ptr, ptr %2, align 8, !tbaa !6
  %11 = getelementptr inbounds nuw %struct.dt_dbus_t, ptr %10, i32 0, i32 1
  store ptr %9, ptr %11, align 8, !tbaa !11
  %12 = load ptr, ptr %2, align 8, !tbaa !6
  %13 = getelementptr inbounds nuw %struct.dt_dbus_t, ptr %12, i32 0, i32 1
  %14 = load ptr, ptr %13, align 8, !tbaa !11
  %15 = icmp eq ptr %14, null
  br i1 %15, label %16, label %18

16:                                               ; preds = %8
  %17 = load ptr, ptr %2, align 8, !tbaa !6
  store ptr %17, ptr %1, align 8
  store i32 1, ptr %3, align 4
  br label %37

18:                                               ; preds = %8
  %19 = load ptr, ptr %2, align 8, !tbaa !6
  %20 = call i32 @g_bus_own_name(i32 noundef 2, ptr noundef @.str, i32 noundef 0, ptr noundef @_on_bus_acquired, ptr noundef @_on_name_acquired, ptr noundef @_on_name_lost, ptr noundef %19, ptr noundef null)
  %21 = load ptr, ptr %2, align 8, !tbaa !6
  %22 = getelementptr inbounds nuw %struct.dt_dbus_t, ptr %21, i32 0, i32 2
  store i32 %20, ptr %22, align 8, !tbaa !16
  %23 = call ptr @g_bus_get_sync(i32 noundef 2, ptr noundef null, ptr noundef null)
  %24 = load ptr, ptr %2, align 8, !tbaa !6
  %25 = getelementptr inbounds nuw %struct.dt_dbus_t, ptr %24, i32 0, i32 4
  store ptr %23, ptr %25, align 8, !tbaa !17
  %26 = load ptr, ptr %2, align 8, !tbaa !6
  %27 = getelementptr inbounds nuw %struct.dt_dbus_t, ptr %26, i32 0, i32 4
  %28 = load ptr, ptr %27, align 8, !tbaa !17
  %29 = icmp ne ptr %28, null
  br i1 %29, label %30, label %35

30:                                               ; preds = %18
  %31 = load ptr, ptr %2, align 8, !tbaa !6
  %32 = getelementptr inbounds nuw %struct.dt_dbus_t, ptr %31, i32 0, i32 4
  %33 = load ptr, ptr %32, align 8, !tbaa !17
  %34 = call ptr @g_type_check_instance_cast(ptr noundef %33, i64 noundef 80)
  call void (ptr, ptr, ...) @g_object_set(ptr noundef %34, ptr noundef @.str.1, i32 noundef 0, ptr noundef null)
  br label %35

35:                                               ; preds = %30, %18
  %36 = load ptr, ptr %2, align 8, !tbaa !6
  store ptr %36, ptr %1, align 8
  store i32 1, ptr %3, align 4
  br label %37

37:                                               ; preds = %35, %16, %7
  call void @llvm.lifetime.end.p0(i64 8, ptr %2) #5
  %38 = load ptr, ptr %1, align 8
  ret ptr %38
}