; Function Attrs: nounwind uwtable
define noundef ptr @dt_dbus_init() local_unnamed_addr #0 {
  %1 = tail call noalias dereferenceable_or_null(32) ptr @g_malloc0(i64 noundef 32) #7
  %.not = icmp eq ptr %1, null
  br i1 %.not, label %13, label %2

2:                                                ; preds = %0
  %3 = tail call ptr @g_dbus_node_info_new_for_xml(ptr noundef nonnull @introspection_xml, ptr noundef null) #8
  %4 = getelementptr inbounds nuw i8, ptr %1, i64 8
  store ptr %3, ptr %4, align 8, !tbaa !6
  %5 = icmp eq ptr %3, null
  br i1 %5, label %13, label %6

6:                                                ; preds = %2
  %7 = tail call i32 @g_bus_own_name(i32 noundef 2, ptr noundef nonnull @.str, i32 noundef 0, ptr noundef nonnull @_on_bus_acquired, ptr noundef nonnull @_on_name_acquired, ptr noundef nonnull @_on_name_lost, ptr noundef nonnull %1, ptr noundef null) #8
  %8 = getelementptr inbounds nuw i8, ptr %1, i64 16
  store i32 %7, ptr %8, align 8, !tbaa !14
  %9 = tail call ptr @g_bus_get_sync(i32 noundef 2, ptr noundef null, ptr noundef null) #8
  %10 = getelementptr inbounds nuw i8, ptr %1, i64 24
  store ptr %9, ptr %10, align 8, !tbaa !15
  %.not13 = icmp eq ptr %9, null
  br i1 %.not13, label %13, label %11

11:                                               ; preds = %6
  %12 = tail call ptr @g_type_check_instance_cast(ptr noundef nonnull %9, i64 noundef 80) #8
  tail call void (ptr, ptr, ...) @g_object_set(ptr noundef %12, ptr noundef nonnull @.str.1, i32 noundef 0, ptr noundef null) #8
  br label %13

13:                                               ; preds = %6, %11, %2, %0
  ret ptr %1
}